target datalayout = "e-m:e-p270:32:32-p271:32:32-p272:64:64-i64:64-i128:128-f80:128-n8:16:32:64-S128"
target triple = "x86_64-pc-linux-gnu"

%struct._zval_struct = type { %union._zend_value, %union.anon.3, %union.anon.6 }
%union._zend_value = type { i64 }
%union.anon.3 = type { i32 }
%union.anon.6 = type { i32 }
%struct._zend_array = type { %struct._zend_refcounted_h, %union.anon.0, i32, %union.anon.1, i32, i32, i32, i32, i64, ptr }
%struct._zend_refcounted_h = type { i32, %union.anon }
%union.anon = type { i32 }
%union.anon.0 = type { i32 }
%union.anon.1 = type { ptr }
%struct._zend_pcre_globals = type { %struct._zend_array, i64, i64, i8, i32, %struct._zval_struct, %struct._zval_struct, ptr }

@pcre_globals = dso_local global %struct._zend_pcre_globals zeroinitializer, align 8
@php_pcre_version = hidden global ptr null, align 8
@pcre2_init_ok = internal global i8 0, align 1
@.str.77 = private unnamed_addr constant [19 x i8] c"PREG_PATTERN_ORDER\00", align 1
@.str.78 = private unnamed_addr constant [15 x i8] c"PREG_SET_ORDER\00", align 1
@.str.79 = private unnamed_addr constant [20 x i8] c"PREG_OFFSET_CAPTURE\00", align 1
@.str.80 = private unnamed_addr constant [23 x i8] c"PREG_UNMATCHED_AS_NULL\00", align 1
@.str.81 = private unnamed_addr constant [20 x i8] c"PREG_SPLIT_NO_EMPTY\00", align 1
@.str.82 = private unnamed_addr constant [25 x i8] c"PREG_SPLIT_DELIM_CAPTURE\00", align 1
@.str.83 = private unnamed_addr constant [26 x i8] c"PREG_SPLIT_OFFSET_CAPTURE\00", align 1
@.str.84 = private unnamed_addr constant [17 x i8] c"PREG_GREP_INVERT\00", align 1
@.str.85 = private unnamed_addr constant [14 x i8] c"PREG_NO_ERROR\00", align 1
@.str.86 = private unnamed_addr constant [20 x i8] c"PREG_INTERNAL_ERROR\00", align 1
@.str.87 = private unnamed_addr constant [27 x i8] c"PREG_BACKTRACK_LIMIT_ERROR\00", align 1
@.str.88 = private unnamed_addr constant [27 x i8] c"PREG_RECURSION_LIMIT_ERROR\00", align 1
@.str.89 = private unnamed_addr constant [20 x i8] c"PREG_BAD_UTF8_ERROR\00", align 1
@.str.90 = private unnamed_addr constant [27 x i8] c"PREG_BAD_UTF8_OFFSET_ERROR\00", align 1
@.str.91 = private unnamed_addr constant [26 x i8] c"PREG_JIT_STACKLIMIT_ERROR\00", align 1
@.str.92 = private unnamed_addr constant [13 x i8] c"PCRE_VERSION\00", align 1
@.str.93 = private unnamed_addr constant [19 x i8] c"PCRE_VERSION_MAJOR\00", align 1
@.str.94 = private unnamed_addr constant [19 x i8] c"PCRE_VERSION_MINOR\00", align 1
@.str.95 = private unnamed_addr constant [17 x i8] c"PCRE_JIT_SUPPORT\00", align 1

; Function Attrs: nounwind uwtable
define internal void @register_php_pcre_symbols(i32 noundef %0) #0 {
  %2 = alloca i32, align 4
  store i32 %0, ptr %2, align 4, !tbaa !13
  %3 = load i32, ptr %2, align 4, !tbaa !13
  call void @zend_register_long_constant(ptr noundef @.str.77, i64 noundef 18, i64 noundef 1, i32 noundef 1, i32 noundef %3)
  %4 = load i32, ptr %2, align 4, !tbaa !13
  call void @zend_register_long_constant(ptr noundef @.str.78, i64 noundef 14, i64 noundef 2, i32 noundef 1, i32 noundef %4)
  %5 = load i32, ptr %2, align 4, !tbaa !13
  call void @zend_register_long_constant(ptr noundef @.str.79, i64 noundef 19, i64 noundef 256, i32 noundef 1, i32 noundef %5)
  %6 = load i32, ptr %2, align 4, !tbaa !13
  call void @zend_register_long_constant(ptr noundef @.str.80, i64 noundef 22, i64 noundef 512, i32 noundef 1, i32 noundef %6)
  %7 = load i32, ptr %2, align 4, !tbaa !13
  call void @zend_register_long_constant(ptr noundef @.str.81, i64 noundef 19, i64 noundef 1, i32 noundef 1, i32 noundef %7)
  %8 = load i32, ptr %2, align 4, !tbaa !13
  call void @zend_register_long_constant(ptr noundef @.str.82, i64 noundef 24, i64 noundef 2, i32 noundef 1, i32 noundef %8)
  %9 = load i32, ptr %2, align 4, !tbaa !13
  call void @zend_register_long_constant(ptr noundef @.str.83, i64 noundef 25, i64 noundef 4, i32 noundef 1, i32 noundef %9)
  %10 = load i32, ptr %2, align 4, !tbaa !13
  call void @zend_register_long_constant(ptr noundef @.str.84, i64 noundef 16, i64 noundef 1, i32 noundef 1, i32 noundef %10)
  %11 = load i32, ptr %2, align 4, !tbaa !13
  call void @zend_register_long_constant(ptr noundef @.str.85, i64 noundef 13, i64 noundef 0, i32 noundef 1, i32 noundef %11)
  %12 = load i32, ptr %2, align 4, !tbaa !13
  call void @zend_register_long_constant(ptr noundef @.str.86, i64 noundef 19, i64 noundef 1, i32 noundef 1, i32 noundef %12)
  %13 = load i32, ptr %2, align 4, !tbaa !13
  call void @zend_register_long_constant(ptr noundef @.str.87, i64 noundef 26, i64 noundef 2, i32 noundef 1, i32 noundef %13)
  %14 = load i32, ptr %2, align 4, !tbaa !13
  call void @zend_register_long_constant(ptr noundef @.str.88, i64 noundef 26, i64 noundef 3, i32 noundef 1, i32 noundef %14)
  %15 = load i32, ptr %2, align 4, !tbaa !13
  call void @zend_register_long_constant(ptr noundef @.str.89, i64 noundef 19, i64 noundef 4, i32 noundef 1, i32 noundef %15)
  %16 = load i32, ptr %2, align 4, !tbaa !13
  call void @zend_register_long_constant(ptr noundef @.str.90, i64 noundef 26, i64 noundef 5, i32 noundef 1, i32 noundef %16)
  %17 = load i32, ptr %2, align 4, !tbaa !13
  call void @zend_register_long_constant(ptr noundef @.str.91, i64 noundef 25, i64 noundef 6, i32 noundef 1, i32 noundef %17)
  %18 = load ptr, ptr @php_pcre_version, align 8, !tbaa !15
  %19 = load i32, ptr %2, align 4, !tbaa !13
  call void @zend_register_string_constant(ptr noundef @.str.92, i64 noundef 12, ptr noundef %18, i32 noundef 1, i32 noundef %19)
  %20 = load i32, ptr %2, align 4, !tbaa !13
  call void @zend_register_long_constant(ptr noundef @.str.93, i64 noundef 18, i64 noundef 10, i32 noundef 1, i32 noundef %20)
  %21 = load i32, ptr %2, align 4, !tbaa !13
  call void @zend_register_long_constant(ptr noundef @.str.94, i64 noundef 18, i64 noundef 45, i32 noundef 1, i32 noundef %21)
  %22 = load i32, ptr %2, align 4, !tbaa !13
  call void @zend_register_bool_constant(ptr noundef @.str.95, i64 noundef 16, i1 noundef zeroext true, i32 noundef 1, i32 noundef %22)
  ret void
}

; Function Attrs: nounwind uwtable
define internal ptr @_pcre2_config_str(i32 noundef %0) #0 {
  %2 = alloca ptr, align 8
  %3 = alloca i32, align 4
  %4 = alloca i32, align 4
  %5 = alloca ptr, align 8
  %6 = alloca i32, align 4
  store i32 %0, ptr %3, align 4, !tbaa !13
  call void @llvm.lifetime.start.p0(i64 4, ptr %4) #17
  %7 = load i32, ptr %3, align 4, !tbaa !13
  %8 = call i32 @php_pcre2_config(i32 noundef %7, ptr noundef null)
  store i32 %8, ptr %4, align 4, !tbaa !13
  call void @llvm.lifetime.start.p0(i64 8, ptr %5) #17
  %9 = load i32, ptr %4, align 4, !tbaa !13
  %10 = add nsw i32 %9, 1
  %11 = sext i32 %10 to i64
  %12 = call noalias ptr @malloc(i64 noundef %11) #25
  store ptr %12, ptr %5, align 8, !tbaa !15
  %13 = load i32, ptr %3, align 4, !tbaa !13
  %14 = load ptr, ptr %5, align 8, !tbaa !15
  %15 = call i32 @php_pcre2_config(i32 noundef %13, ptr noundef %14)
  store i32 %15, ptr %4, align 4, !tbaa !13
  %16 = load i32, ptr %4, align 4, !tbaa !13
  %17 = icmp ne i32 %16, 0
  br i1 %17, label %20, label %18

18:                                               ; preds = %1
  %19 = load ptr, ptr %5, align 8, !tbaa !15
  call void @free(ptr noundef %19) #17
  store ptr null, ptr %2, align 8
  store i32 1, ptr %6, align 4
  br label %22

20:                                               ; preds = %1
  %21 = load ptr, ptr %5, align 8, !tbaa !15
  store ptr %21, ptr %2, align 8
  store i32 1, ptr %6, align 4
  br label %22

22:                                               ; preds = %20, %18
  call void @llvm.lifetime.end.p0(i64 8, ptr %5) #17
  call void @llvm.lifetime.end.p0(i64 4, ptr %4) #17
  %23 = load ptr, ptr %2, align 8
  ret ptr %23
}

; Function Attrs: nounwind uwtable
define internal i32 @zm_startup_pcre(i32 noundef %0, i32 noundef %1) #0 {
  %3 = alloca i32, align 4
  %4 = alloca i32, align 4
  %5 = alloca i32, align 4
  store i32 %0, ptr %4, align 4, !tbaa !13
  store i32 %1, ptr %5, align 4, !tbaa !13
  %6 = load i8, ptr @pcre2_init_ok, align 1, !tbaa !45
  %7 = icmp ne i8 %6, 0
  %8 = xor i1 %7, true
  %9 = xor i1 %8, true
  %10 = xor i1 %9, true
  %11 = zext i1 %10 to i32
  %12 = sext i32 %11 to i64
  %13 = call i64 @llvm.expect.i64(i64 %12, i64 0)
  %14 = icmp ne i64 %13, 0
  br i1 %14, label %15, label %23

15:                                               ; preds = %2
  %16 = load i8, ptr getelementptr inbounds nuw (%struct._zend_pcre_globals, ptr @pcre_globals, i32 0, i32 3), align 8, !tbaa !55, !range !17, !noundef !18
  %17 = trunc i8 %16 to i1
  %18 = zext i1 %17 to i8
  call void @php_pcre_init_pcre2(i8 noundef zeroext %18)
  %19 = load i8, ptr @pcre2_init_ok, align 1, !tbaa !45
  %20 = icmp ne i8 %19, 0
  br i1 %20, label %22, label %21

21:                                               ; preds = %15
  store i32 -1, ptr %3, align 4
  br label %29

22:                                               ; preds = %15
  br label %23

23:                                               ; preds = %22, %2
  %24 = load i32, ptr %5, align 4, !tbaa !13
  %25 = load i32, ptr %4, align 4, !tbaa !13
  %26 = call i32 @zend_register_ini_entries_ex(ptr noundef @ini_entries, i32 noundef %24, i32 noundef %25)
  %27 = call ptr @_pcre2_config_str(i32 noundef 11)
  store ptr %27, ptr @php_pcre_version, align 8, !tbaa !15
  %28 = load i32, ptr %5, align 4, !tbaa !13
  call void @register_php_pcre_symbols(i32 noundef %28)
  store i32 0, ptr %3, align 4
  br label %29

29:                                               ; preds = %23, %21
  %30 = load i32, ptr %3, align 4
  ret i32 %30
}