; Function Attrs: nounwind uwtable
define internal range(i32 -1, 1) i32 @zm_startup_pcre(i32 noundef %0, i32 noundef %1) #0 {
  %.b4 = load i1, ptr @pcre2_init_ok, align 1
  br i1 %.b4, label %5, label %3, !prof !55

3:                                                ; preds = %2
  %4 = load i8, ptr getelementptr inbounds nuw (i8, ptr @pcre_globals, i64 72), align 8, !tbaa !53, !range !54, !noundef !45
  tail call fastcc void @php_pcre_init_pcre2(i8 noundef zeroext %4)
  %.b = load i1, ptr @pcre2_init_ok, align 1
  br i1 %.b, label %5, label %14

5:                                                ; preds = %3, %2
  %6 = tail call i32 @zend_register_ini_entries_ex(ptr noundef nonnull @ini_entries, i32 noundef %1, i32 noundef %0) #24
  %7 = tail call i32 @php_pcre2_config(i32 noundef 11, ptr noundef null) #24
  %8 = add nsw i32 %7, 1
  %9 = sext i32 %8 to i64
  %10 = tail call noalias ptr @malloc(i64 noundef %9) #26
  %11 = tail call i32 @php_pcre2_config(i32 noundef 11, ptr noundef %10) #24
  %.not.i = icmp eq i32 %11, 0
  br i1 %.not.i, label %12, label %_pcre2_config_str.exit

12:                                               ; preds = %5
  tail call void @free(ptr noundef %10) #24
  br label %_pcre2_config_str.exit

_pcre2_config_str.exit:                           ; preds = %5, %12
  %.0.i = phi ptr [ null, %12 ], [ %10, %5 ]
  store ptr %.0.i, ptr @php_pcre_version, align 8, !tbaa !97
  tail call void @zend_register_long_constant(ptr noundef nonnull @.str.77, i64 noundef 18, i64 noundef 1, i32 noundef 1, i32 noundef %1) #24
  tail call void @zend_register_long_constant(ptr noundef nonnull @.str.78, i64 noundef 14, i64 noundef 2, i32 noundef 1, i32 noundef %1) #24
  tail call void @zend_register_long_constant(ptr noundef nonnull @.str.79, i64 noundef 19, i64 noundef 256, i32 noundef 1, i32 noundef %1) #24
  tail call void @zend_register_long_constant(ptr noundef nonnull @.str.80, i64 noundef 22, i64 noundef 512, i32 noundef 1, i32 noundef %1) #24
  tail call void @zend_register_long_constant(ptr noundef nonnull @.str.81, i64 noundef 19, i64 noundef 1, i32 noundef 1, i32 noundef %1) #24
  tail call void @zend_register_long_constant(ptr noundef nonnull @.str.82, i64 noundef 24, i64 noundef 2, i32 noundef 1, i32 noundef %1) #24
  tail call void @zend_register_long_constant(ptr noundef nonnull @.str.83, i64 noundef 25, i64 noundef 4, i32 noundef 1, i32 noundef %1) #24
  tail call void @zend_register_long_constant(ptr noundef nonnull @.str.84, i64 noundef 16, i64 noundef 1, i32 noundef 1, i32 noundef %1) #24
  tail call void @zend_register_long_constant(ptr noundef nonnull @.str.85, i64 noundef 13, i64 noundef 0, i32 noundef 1, i32 noundef %1) #24
  tail call void @zend_register_long_constant(ptr noundef nonnull @.str.86, i64 noundef 19, i64 noundef 1, i32 noundef 1, i32 noundef %1) #24
  tail call void @zend_register_long_constant(ptr noundef nonnull @.str.87, i64 noundef 26, i64 noundef 2, i32 noundef 1, i32 noundef %1) #24
  tail call void @zend_register_long_constant(ptr noundef nonnull @.str.88, i64 noundef 26, i64 noundef 3, i32 noundef 1, i32 noundef %1) #24
  tail call void @zend_register_long_constant(ptr noundef nonnull @.str.89, i64 noundef 19, i64 noundef 4, i32 noundef 1, i32 noundef %1) #24
  tail call void @zend_register_long_constant(ptr noundef nonnull @.str.90, i64 noundef 26, i64 noundef 5, i32 noundef 1, i32 noundef %1) #24
  tail call void @zend_register_long_constant(ptr noundef nonnull @.str.91, i64 noundef 25, i64 noundef 6, i32 noundef 1, i32 noundef %1) #24
  %13 = load ptr, ptr @php_pcre_version, align 8, !tbaa !97
  tail call void @zend_register_string_constant(ptr noundef nonnull @.str.92, i64 noundef 12, ptr noundef %13, i32 noundef 1, i32 noundef %1) #24
  tail call void @zend_register_long_constant(ptr noundef nonnull @.str.93, i64 noundef 18, i64 noundef 10, i32 noundef 1, i32 noundef %1) #24
  tail call void @zend_register_long_constant(ptr noundef nonnull @.str.94, i64 noundef 18, i64 noundef 45, i32 noundef 1, i32 noundef %1) #24
  tail call void @zend_register_bool_constant(ptr noundef nonnull @.str.95, i64 noundef 16, i1 noundef zeroext true, i32 noundef 1, i32 noundef %1) #24
  br label %14

14:                                               ; preds = %3, %_pcre2_config_str.exit
  %.0 = phi i32 [ 0, %_pcre2_config_str.exit ], [ -1, %3 ]
  ret i32 %.0
}